; Function Attrs: mustprogress uwtable
define hidden void @_ZN7datalog16rule_transformer6cancelEv(ptr noundef nonnull readonly align 8 captures(none) dereferenceable(32) %0) local_unnamed_addr #5 align 2 {
  %2 = getelementptr inbounds nuw i8, ptr %0, i64 24
  %3 = load ptr, ptr %2, align 8, !tbaa !17
  %4 = icmp eq ptr %3, null
  br i1 %4, label %._crit_edge, label %_ZN6vectorIPN7datalog16rule_transformer6pluginELb0EjE3endEv.exit

_ZN6vectorIPN7datalog16rule_transformer6pluginELb0EjE3endEv.exit: ; preds = %1
  %5 = getelementptr inbounds i8, ptr %3, i64 -4
  %6 = load i32, ptr %5, align 4, !tbaa !18
  %7 = zext i32 %6 to i64
  %8 = getelementptr inbounds nuw ptr, ptr %3, i64 %7
  %.not8 = icmp eq i32 %6, 0
  br i1 %.not8, label %._crit_edge, label %.lr.ph

._crit_edge:                                      ; preds = %.lr.ph, %1, %_ZN6vectorIPN7datalog16rule_transformer6pluginELb0EjE3endEv.exit
  ret void

.lr.ph:                                           ; preds = %_ZN6vectorIPN7datalog16rule_transformer6pluginELb0EjE3endEv.exit, %.lr.ph
  %.09 = phi ptr [ %13, %.lr.ph ], [ %3, %_ZN6vectorIPN7datalog16rule_transformer6pluginELb0EjE3endEv.exit ]
  %9 = load ptr, ptr %.09, align 8, !tbaa !20
  %10 = load ptr, ptr %9, align 8, !tbaa !22
  %11 = getelementptr inbounds nuw i8, ptr %10, i64 16
  %12 = load ptr, ptr %11, align 8
  tail call void %12(ptr noundef nonnull align 8 dereferenceable(24) %9)
  %13 = getelementptr inbounds nuw i8, ptr %.09, i64 8
  %.not = icmp eq ptr %13, %8
  br i1 %.not, label %._crit_edge, label %.lr.ph
}